target datalayout = "e-m:e-p270:32:32-p271:32:32-p272:64:64-i64:64-i128:128-f80:128-n8:16:32:64-S128"
target triple = "x86_64-pc-linux-gnu"

%struct.ChunkInfo = type { i32, i32, i32 }
%struct.WebPMux = type { ptr, ptr, ptr, ptr, ptr, ptr, ptr, i32, i32 }
%struct.WebPData = type { ptr, i64 }
%struct.WebPChunk = type { i32, i32, %struct.WebPData, ptr }
%struct.WebPMuxImage = type { ptr, ptr, ptr, ptr, i32, i32, i32, i32, ptr }

@kChunks = external constant [11 x %struct.ChunkInfo], align 16
@.str = private unnamed_addr constant [5 x i8] c"RIFF\00", align 1

; Function Attrs: inlinehint nounwind uwtable
define internal ptr @WebPMuxCreate(ptr noundef %0, i32 noundef %1) #4 {
  %3 = alloca ptr, align 8
  %4 = alloca i32, align 4
  store ptr %0, ptr %3, align 8, !tbaa !17
  store i32 %1, ptr %4, align 4, !tbaa !3
  %5 = load ptr, ptr %3, align 8, !tbaa !17
  %6 = load i32, ptr %4, align 4, !tbaa !3
  %7 = call ptr @WebPMuxCreateInternal(ptr noundef %5, i32 noundef %6, i32 noundef 265)
  ret ptr %7
}

; Function Attrs: inlinehint nounwind uwtable
define internal void @WebPDataInit(ptr noundef %0) #4 {
  %2 = alloca ptr, align 8
  store ptr %0, ptr %2, align 8, !tbaa !17
  %3 = load ptr, ptr %2, align 8, !tbaa !17
  %4 = icmp ne ptr %3, null
  br i1 %4, label %5, label %7

5:                                                ; preds = %1
  %6 = load ptr, ptr %2, align 8, !tbaa !17
  call void @llvm.memset.p0.i64(ptr align 8 %6, i8 0, i64 16, i1 false)
  br label %7

7:                                                ; preds = %5, %1
  ret void
}

; Function Attrs: nounwind uwtable
define internal i32 @AddDataToChunkList(ptr noundef %0, i32 noundef %1, i32 noundef %2, ptr noundef %3) #0 {
  %5 = alloca i32, align 4
  %6 = alloca ptr, align 8
  %7 = alloca i32, align 4
  %8 = alloca i32, align 4
  %9 = alloca ptr, align 8
  %10 = alloca %struct.WebPChunk, align 8
  %11 = alloca i32, align 4
  %12 = alloca i32, align 4
  store ptr %0, ptr %6, align 8, !tbaa !17
  store i32 %1, ptr %7, align 4, !tbaa !3
  store i32 %2, ptr %8, align 4, !tbaa !3
  store ptr %3, ptr %9, align 8, !tbaa !52
  call void @llvm.lifetime.start.p0(i64 32, ptr %10) #7
  call void @llvm.lifetime.start.p0(i64 4, ptr %11) #7
  call void @ChunkInit(ptr noundef %10)
  %13 = load ptr, ptr %6, align 8, !tbaa !17
  %14 = load i32, ptr %7, align 4, !tbaa !3
  %15 = load i32, ptr %8, align 4, !tbaa !3
  %16 = call i32 @ChunkAssignData(ptr noundef %10, ptr noundef %13, i32 noundef %14, i32 noundef %15)
  store i32 %16, ptr %11, align 4, !tbaa !3
  %17 = load i32, ptr %11, align 4, !tbaa !3
  %18 = icmp ne i32 %17, 1
  br i1 %18, label %19, label %20

19:                                               ; preds = %4
  br label %27

20:                                               ; preds = %4
  %21 = load ptr, ptr %9, align 8, !tbaa !52
  %22 = call i32 @ChunkSetHead(ptr noundef %10, ptr noundef %21)
  store i32 %22, ptr %11, align 4, !tbaa !3
  %23 = load i32, ptr %11, align 4, !tbaa !3
  %24 = icmp ne i32 %23, 1
  br i1 %24, label %25, label %26

25:                                               ; preds = %20
  br label %27

26:                                               ; preds = %20
  store i32 1, ptr %5, align 4
  store i32 1, ptr %12, align 4
  br label %30

27:                                               ; preds = %25, %19
  %28 = call ptr @ChunkRelease(ptr noundef %10)
  %29 = load i32, ptr %11, align 4, !tbaa !3
  store i32 %29, ptr %5, align 4
  store i32 1, ptr %12, align 4
  br label %30

30:                                               ; preds = %27, %26
  call void @llvm.lifetime.end.p0(i64 4, ptr %11) #7
  call void @llvm.lifetime.end.p0(i64 32, ptr %10) #7
  %31 = load i32, ptr %5, align 4
  ret i32 %31
}

; Function Attrs: nounwind uwtable
define internal i32 @GetImageData(ptr noundef %0, ptr noundef %1, ptr noundef %2, ptr noundef %3) #0 {
  %5 = alloca i32, align 4
  %6 = alloca ptr, align 8
  %7 = alloca ptr, align 8
  %8 = alloca ptr, align 8
  %9 = alloca ptr, align 8
  %10 = alloca ptr, align 8
  %11 = alloca ptr, align 8
  %12 = alloca i32, align 4
  store ptr %0, ptr %6, align 8, !tbaa !17
  store ptr %1, ptr %7, align 8, !tbaa !17
  store ptr %2, ptr %8, align 8, !tbaa !17
  store ptr %3, ptr %9, align 8, !tbaa !73
  %13 = load ptr, ptr %8, align 8, !tbaa !17
  call void @WebPDataInit(ptr noundef %13)
  %14 = load ptr, ptr %6, align 8, !tbaa !17
  %15 = getelementptr inbounds nuw %struct.WebPData, ptr %14, i32 0, i32 1
  %16 = load i64, ptr %15, align 8, !tbaa !22
  %17 = icmp ult i64 %16, 4
  br i1 %17, label %24, label %18

18:                                               ; preds = %4
  %19 = load ptr, ptr %6, align 8, !tbaa !17
  %20 = getelementptr inbounds nuw %struct.WebPData, ptr %19, i32 0, i32 0
  %21 = load ptr, ptr %20, align 8, !tbaa !19
  %22 = call i32 @memcmp(ptr noundef %21, ptr noundef @.str, i64 noundef 4) #8
  %23 = icmp ne i32 %22, 0
  br i1 %23, label %24, label %27

24:                                               ; preds = %18, %4
  %25 = load ptr, ptr %7, align 8, !tbaa !17
  %26 = load ptr, ptr %6, align 8, !tbaa !17
  call void @llvm.memcpy.p0.p0.i64(ptr align 8 %25, ptr align 8 %26, i64 16, i1 false), !tbaa.struct !75
  br label %57

27:                                               ; preds = %18
  call void @llvm.lifetime.start.p0(i64 8, ptr %10) #7
  call void @llvm.lifetime.start.p0(i64 8, ptr %11) #7
  %28 = load ptr, ptr %6, align 8, !tbaa !17
  %29 = call ptr @WebPMuxCreate(ptr noundef %28, i32 noundef 0)
  store ptr %29, ptr %11, align 8, !tbaa !7
  %30 = load ptr, ptr %11, align 8, !tbaa !7
  %31 = icmp eq ptr %30, null
  br i1 %31, label %32, label %33

32:                                               ; preds = %27
  store i32 -2, ptr %5, align 4
  store i32 1, ptr %12, align 4
  br label %54

33:                                               ; preds = %27
  %34 = load ptr, ptr %11, align 8, !tbaa !7
  %35 = getelementptr inbounds nuw %struct.WebPMux, ptr %34, i32 0, i32 0
  %36 = load ptr, ptr %35, align 8, !tbaa !23
  store ptr %36, ptr %10, align 8, !tbaa !26
  %37 = load ptr, ptr %7, align 8, !tbaa !17
  %38 = load ptr, ptr %10, align 8, !tbaa !26
  %39 = getelementptr inbounds nuw %struct.WebPMuxImage, ptr %38, i32 0, i32 2
  %40 = load ptr, ptr %39, align 8, !tbaa !66
  %41 = getelementptr inbounds nuw %struct.WebPChunk, ptr %40, i32 0, i32 2
  call void @llvm.memcpy.p0.p0.i64(ptr align 8 %37, ptr align 8 %41, i64 16, i1 false), !tbaa.struct !75
  %42 = load ptr, ptr %10, align 8, !tbaa !26
  %43 = getelementptr inbounds nuw %struct.WebPMuxImage, ptr %42, i32 0, i32 1
  %44 = load ptr, ptr %43, align 8, !tbaa !76
  %45 = icmp ne ptr %44, null
  br i1 %45, label %46, label %52

46:                                               ; preds = %33
  %47 = load ptr, ptr %8, align 8, !tbaa !17
  %48 = load ptr, ptr %10, align 8, !tbaa !26
  %49 = getelementptr inbounds nuw %struct.WebPMuxImage, ptr %48, i32 0, i32 1
  %50 = load ptr, ptr %49, align 8, !tbaa !76
  %51 = getelementptr inbounds nuw %struct.WebPChunk, ptr %50, i32 0, i32 2
  call void @llvm.memcpy.p0.p0.i64(ptr align 8 %47, ptr align 8 %51, i64 16, i1 false), !tbaa.struct !75
  br label %52

52:                                               ; preds = %46, %33
  %53 = load ptr, ptr %11, align 8, !tbaa !7
  call void @WebPMuxDelete(ptr noundef %53)
  store i32 0, ptr %12, align 4
  br label %54

54:                                               ; preds = %52, %32
  call void @llvm.lifetime.end.p0(i64 8, ptr %11) #7
  call void @llvm.lifetime.end.p0(i64 8, ptr %10) #7
  %55 = load i32, ptr %12, align 4
  switch i32 %55, label %68 [
    i32 0, label %56
    i32 1, label %66
  ]

56:                                               ; preds = %54
  br label %57

57:                                               ; preds = %56, %24
  %58 = load ptr, ptr %7, align 8, !tbaa !17
  %59 = getelementptr inbounds nuw %struct.WebPData, ptr %58, i32 0, i32 0
  %60 = load ptr, ptr %59, align 8, !tbaa !19
  %61 = load ptr, ptr %7, align 8, !tbaa !17
  %62 = getelementptr inbounds nuw %struct.WebPData, ptr %61, i32 0, i32 1
  %63 = load i64, ptr %62, align 8, !tbaa !22
  %64 = call i32 @VP8LCheckSignature(ptr noundef %60, i64 noundef %63)
  %65 = load ptr, ptr %9, align 8, !tbaa !73
  store i32 %64, ptr %65, align 4, !tbaa !3
  store i32 1, ptr %5, align 4
  br label %66

66:                                               ; preds = %57, %54
  %67 = load i32, ptr %5, align 4
  ret i32 %67

68:                                               ; preds = %54
  unreachable
}

; Function Attrs: nounwind uwtable
define internal i32 @SetAlphaAndImageChunks(ptr noundef %0, i32 noundef %1, ptr noundef %2) #0 {
  %4 = alloca i32, align 4
  %5 = alloca ptr, align 8
  %6 = alloca i32, align 4
  %7 = alloca ptr, align 8
  %8 = alloca i32, align 4
  %9 = alloca %struct.WebPData, align 8
  %10 = alloca %struct.WebPData, align 8
  %11 = alloca i32, align 4
  %12 = alloca i32, align 4
  %13 = alloca i32, align 4
  store ptr %0, ptr %5, align 8, !tbaa !17
  store i32 %1, ptr %6, align 4, !tbaa !3
  store ptr %2, ptr %7, align 8, !tbaa !26
  call void @llvm.lifetime.start.p0(i64 4, ptr %8) #7
  store i32 0, ptr %8, align 4, !tbaa !3
  call void @llvm.lifetime.start.p0(i64 16, ptr %9) #7
  call void @llvm.lifetime.start.p0(i64 16, ptr %10) #7
  call void @llvm.lifetime.start.p0(i64 4, ptr %11) #7
  %14 = load ptr, ptr %5, align 8, !tbaa !17
  %15 = call i32 @GetImageData(ptr noundef %14, ptr noundef %9, ptr noundef %10, ptr noundef %8)
  store i32 %15, ptr %11, align 4, !tbaa !3
  call void @llvm.lifetime.start.p0(i64 4, ptr %12) #7
  %16 = load i32, ptr %8, align 4, !tbaa !3
  %17 = icmp ne i32 %16, 0
  br i1 %17, label %18, label %20

18:                                               ; preds = %3
  %19 = load i32, ptr getelementptr inbounds ([11 x %struct.ChunkInfo], ptr @kChunks, i64 0, i64 6), align 8, !tbaa !29
  br label %22

20:                                               ; preds = %3
  %21 = load i32, ptr getelementptr inbounds ([11 x %struct.ChunkInfo], ptr @kChunks, i64 0, i64 5), align 4, !tbaa !29
  br label %22

22:                                               ; preds = %20, %18
  %23 = phi i32 [ %19, %18 ], [ %21, %20 ]
  store i32 %23, ptr %12, align 4, !tbaa !3
  %24 = load i32, ptr %11, align 4, !tbaa !3
  %25 = icmp ne i32 %24, 1
  br i1 %25, label %26, label %28

26:                                               ; preds = %22
  %27 = load i32, ptr %11, align 4, !tbaa !3
  store i32 %27, ptr %4, align 4
  store i32 1, ptr %13, align 4
  br label %58

28:                                               ; preds = %22
  %29 = getelementptr inbounds nuw %struct.WebPData, ptr %10, i32 0, i32 0
  %30 = load ptr, ptr %29, align 8, !tbaa !19
  %31 = icmp ne ptr %30, null
  br i1 %31, label %32, label %43

32:                                               ; preds = %28
  %33 = load i32, ptr %6, align 4, !tbaa !3
  %34 = load i32, ptr getelementptr inbounds ([11 x %struct.ChunkInfo], ptr @kChunks, i64 0, i64 4), align 16, !tbaa !29
  %35 = load ptr, ptr %7, align 8, !tbaa !26
  %36 = getelementptr inbounds nuw %struct.WebPMuxImage, ptr %35, i32 0, i32 1
  %37 = call i32 @AddDataToChunkList(ptr noundef %10, i32 noundef %33, i32 noundef %34, ptr noundef %36)
  store i32 %37, ptr %11, align 4, !tbaa !3
  %38 = load i32, ptr %11, align 4, !tbaa !3
  %39 = icmp ne i32 %38, 1
  br i1 %39, label %40, label %42

40:                                               ; preds = %32
  %41 = load i32, ptr %11, align 4, !tbaa !3
  store i32 %41, ptr %4, align 4
  store i32 1, ptr %13, align 4
  br label %58

42:                                               ; preds = %32
  br label %43

43:                                               ; preds = %42, %28
  %44 = load i32, ptr %6, align 4, !tbaa !3
  %45 = load i32, ptr %12, align 4, !tbaa !3
  %46 = load ptr, ptr %7, align 8, !tbaa !26
  %47 = getelementptr inbounds nuw %struct.WebPMuxImage, ptr %46, i32 0, i32 2
  %48 = call i32 @AddDataToChunkList(ptr noundef %9, i32 noundef %44, i32 noundef %45, ptr noundef %47)
  store i32 %48, ptr %11, align 4, !tbaa !3
  %49 = load i32, ptr %11, align 4, !tbaa !3
  %50 = icmp ne i32 %49, 1
  br i1 %50, label %51, label %53

51:                                               ; preds = %43
  %52 = load i32, ptr %11, align 4, !tbaa !3
  store i32 %52, ptr %4, align 4
  store i32 1, ptr %13, align 4
  br label %58

53:                                               ; preds = %43
  %54 = load ptr, ptr %7, align 8, !tbaa !26
  %55 = call i32 @MuxImageFinalize(ptr noundef %54)
  %56 = icmp ne i32 %55, 0
  %57 = select i1 %56, i32 1, i32 -1
  store i32 %57, ptr %4, align 4
  store i32 1, ptr %13, align 4
  br label %58

58:                                               ; preds = %53, %51, %40, %26
  call void @llvm.lifetime.end.p0(i64 4, ptr %12) #7
  call void @llvm.lifetime.end.p0(i64 4, ptr %11) #7
  call void @llvm.lifetime.end.p0(i64 16, ptr %10) #7
  call void @llvm.lifetime.end.p0(i64 16, ptr %9) #7
  call void @llvm.lifetime.end.p0(i64 4, ptr %8) #7
  %59 = load i32, ptr %4, align 4
  ret i32 %59
}