; Function Attrs: nounwind uwtable
define internal fastcc i32 @SetAlphaAndImageChunks(ptr noundef nonnull %0, i32 noundef %1, ptr noundef nonnull %2) unnamed_addr #0 {
  %4 = alloca %struct.WebPChunk, align 8
  %5 = alloca %struct.WebPChunk, align 8
  %6 = alloca %struct.WebPData, align 8
  %7 = alloca %struct.WebPData, align 8
  call void @llvm.lifetime.start.p0(i64 16, ptr nonnull %6) #7
  call void @llvm.lifetime.start.p0(i64 16, ptr nonnull %7) #7
  call void @llvm.memset.p0.i64(ptr noundef nonnull align 8 dereferenceable(16) %7, i8 0, i64 16, i1 false)
  %8 = getelementptr inbounds nuw i8, ptr %0, i64 8
  %9 = load i64, ptr %8, align 8, !tbaa !14
  %10 = icmp ult i64 %9, 4
  br i1 %10, label %13, label %11

11:                                               ; preds = %3
  %12 = load ptr, ptr %0, align 8, !tbaa !10
  %bcmp.i = tail call i32 @bcmp(ptr noundef nonnull dereferenceable(4) %12, ptr noundef nonnull dereferenceable(4) @.str, i64 4)
  %.not.i = icmp eq i32 %bcmp.i, 0
  br i1 %.not.i, label %14, label %13

13:                                               ; preds = %11, %3
  call void @llvm.memcpy.p0.p0.i64(ptr noundef nonnull align 8 dereferenceable(16) %6, ptr noundef nonnull align 8 dereferenceable(16) %0, i64 16, i1 false), !tbaa.struct !23
  br label %GetImageData.exit

14:                                               ; preds = %11
  %15 = tail call ptr @WebPMuxCreateInternal(ptr noundef nonnull %0, i32 noundef 0, i32 noundef 265) #7
  %16 = icmp eq ptr %15, null
  br i1 %16, label %49, label %17

17:                                               ; preds = %14
  %18 = load ptr, ptr %15, align 8, !tbaa !21
  %19 = getelementptr inbounds nuw i8, ptr %18, i64 16
  %20 = load ptr, ptr %19, align 8, !tbaa !26
  %21 = getelementptr inbounds nuw i8, ptr %20, i64 8
  call void @llvm.memcpy.p0.p0.i64(ptr noundef nonnull align 8 dereferenceable(16) %6, ptr noundef nonnull align 8 dereferenceable(16) %21, i64 16, i1 false), !tbaa.struct !23
  %22 = getelementptr inbounds nuw i8, ptr %18, i64 8
  %23 = load ptr, ptr %22, align 8, !tbaa !28
  %.not21.i = icmp eq ptr %23, null
  br i1 %.not21.i, label %.thread.i, label %24

24:                                               ; preds = %17
  %25 = getelementptr inbounds nuw i8, ptr %23, i64 8
  call void @llvm.memcpy.p0.p0.i64(ptr noundef nonnull align 8 dereferenceable(16) %7, ptr noundef nonnull align 8 dereferenceable(16) %25, i64 16, i1 false), !tbaa.struct !23
  %.pre.pre = load ptr, ptr %7, align 8, !tbaa !10
  %26 = icmp eq ptr %.pre.pre, null
  br label %.thread.i

.thread.i:                                        ; preds = %24, %17
  %.pre = phi i1 [ %26, %24 ], [ true, %17 ]
  tail call void @WebPMuxDelete(ptr noundef nonnull %15)
  br label %GetImageData.exit

GetImageData.exit:                                ; preds = %13, %.thread.i
  %.not17 = phi i1 [ true, %13 ], [ %.pre, %.thread.i ]
  %27 = load ptr, ptr %6, align 8, !tbaa !10
  %28 = getelementptr inbounds nuw i8, ptr %6, i64 8
  %29 = load i64, ptr %28, align 8, !tbaa !14
  %30 = tail call i32 @VP8LCheckSignature(ptr noundef %27, i64 noundef %29) #7
  %.fr = freeze i32 %30
  %.not = icmp eq i32 %.fr, 0
  %31 = load i32, ptr getelementptr inbounds nuw (i8, ptr @kChunks, i64 72), align 8
  %32 = load i32, ptr getelementptr inbounds nuw (i8, ptr @kChunks, i64 60), align 4
  %spec.select = select i1 %.not, i32 %32, i32 %31
  br i1 %.not17, label %40, label %33

33:                                               ; preds = %GetImageData.exit
  %34 = load i32, ptr getelementptr inbounds nuw (i8, ptr @kChunks, i64 48), align 16, !tbaa !29
  call void @llvm.lifetime.start.p0(i64 32, ptr nonnull %5) #7
  call void @ChunkInit(ptr noundef nonnull %5) #7
  %35 = call i32 @ChunkAssignData(ptr noundef nonnull %5, ptr noundef nonnull %7, i32 noundef %1, i32 noundef %34) #7
  %.not.i21 = icmp eq i32 %35, 1
  br i1 %.not.i21, label %36, label %AddDataToChunkList.exit

36:                                               ; preds = %33
  %37 = getelementptr inbounds nuw i8, ptr %2, i64 8
  %38 = call i32 @ChunkSetHead(ptr noundef nonnull %5, ptr noundef nonnull %37) #7
  %.not10.i = icmp eq i32 %38, 1
  br i1 %.not10.i, label %AddDataToChunkList.exit.thread, label %AddDataToChunkList.exit

AddDataToChunkList.exit.thread:                   ; preds = %36
  call void @llvm.lifetime.end.p0(i64 32, ptr nonnull %5) #7
  br label %40

AddDataToChunkList.exit:                          ; preds = %33, %36
  %.0.i = phi i32 [ %35, %33 ], [ %38, %36 ]
  %39 = call ptr @ChunkRelease(ptr noundef nonnull %5) #7
  call void @llvm.lifetime.end.p0(i64 32, ptr nonnull %5) #7
  br label %49

40:                                               ; preds = %AddDataToChunkList.exit.thread, %GetImageData.exit
  call void @llvm.lifetime.start.p0(i64 32, ptr nonnull %4) #7
  call void @ChunkInit(ptr noundef nonnull %4) #7
  %41 = call i32 @ChunkAssignData(ptr noundef nonnull %4, ptr noundef nonnull %6, i32 noundef %1, i32 noundef %spec.select) #7
  %.not.i22 = icmp eq i32 %41, 1
  br i1 %.not.i22, label %42, label %AddDataToChunkList.exit26

42:                                               ; preds = %40
  %43 = getelementptr inbounds nuw i8, ptr %2, i64 16
  %44 = call i32 @ChunkSetHead(ptr noundef nonnull %4, ptr noundef nonnull %43) #7
  %.not10.i25 = icmp eq i32 %44, 1
  br i1 %.not10.i25, label %46, label %AddDataToChunkList.exit26

AddDataToChunkList.exit26:                        ; preds = %40, %42
  %.0.i23 = phi i32 [ %41, %40 ], [ %44, %42 ]
  %45 = call ptr @ChunkRelease(ptr noundef nonnull %4) #7
  call void @llvm.lifetime.end.p0(i64 32, ptr nonnull %4) #7
  br label %49

46:                                               ; preds = %42
  call void @llvm.lifetime.end.p0(i64 32, ptr nonnull %4) #7
  %47 = call i32 @MuxImageFinalize(ptr noundef nonnull %2) #7
  %.not20 = icmp eq i32 %47, 0
  %48 = select i1 %.not20, i32 -1, i32 1
  br label %49

49:                                               ; preds = %14, %AddDataToChunkList.exit26, %AddDataToChunkList.exit, %46
  %.0 = phi i32 [ %48, %46 ], [ %.0.i, %AddDataToChunkList.exit ], [ %.0.i23, %AddDataToChunkList.exit26 ], [ -2, %14 ]
  call void @llvm.lifetime.end.p0(i64 16, ptr nonnull %7) #7
  call void @llvm.lifetime.end.p0(i64 16, ptr nonnull %6) #7
  ret i32 %.0
}